target datalayout = "e-m:e-p270:32:32-p271:32:32-p272:64:64-i64:64-i128:128-f80:128-n8:16:32:64-S128"
target triple = "x86_64-pc-linux-gnu"

%struct.internal_state = type { ptr, i32, ptr, i64, ptr, i64, i32, ptr, i64, i8, i32, i32, i32, i32, ptr, i64, ptr, ptr, i32, i32, i32, i32, i32, i64, i32, i32, i32, i32, i32, i32, i32, i32, i32, i32, i32, i32, i32, [573 x %struct.ct_data_s], [61 x %struct.ct_data_s], [39 x %struct.ct_data_s], %struct.tree_desc_s, %struct.tree_desc_s, %struct.tree_desc_s, [16 x i16], [573 x i32], i32, i32, [573 x i8], ptr, i32, i32, i32, i64, i64, i32, i32, i16, i32, i64 }
%struct.ct_data_s = type { %union.anon, %union.anon.0 }
%union.anon = type { i16 }
%union.anon.0 = type { i16 }
%struct.tree_desc_s = type { ptr, i32, ptr }

; Function Attrs: nounwind uwtable
define internal void @slide_hash(ptr noundef %0) #0 {
  %2 = alloca ptr, align 8
  %3 = alloca i32, align 4
  %4 = alloca i32, align 4
  %5 = alloca ptr, align 8
  %6 = alloca i32, align 4
  store ptr %0, ptr %2, align 8, !tbaa !21
  call void @llvm.lifetime.start.p0(i64 4, ptr %3) #5
  call void @llvm.lifetime.start.p0(i64 4, ptr %4) #5
  call void @llvm.lifetime.start.p0(i64 8, ptr %5) #5
  call void @llvm.lifetime.start.p0(i64 4, ptr %6) #5
  %7 = load ptr, ptr %2, align 8, !tbaa !21
  %8 = getelementptr inbounds nuw %struct.internal_state, ptr %7, i32 0, i32 11
  %9 = load i32, ptr %8, align 8, !tbaa !35
  store i32 %9, ptr %6, align 4, !tbaa !9
  %10 = load ptr, ptr %2, align 8, !tbaa !21
  %11 = getelementptr inbounds nuw %struct.internal_state, ptr %10, i32 0, i32 19
  %12 = load i32, ptr %11, align 4, !tbaa !38
  store i32 %12, ptr %3, align 4, !tbaa !9
  %13 = load ptr, ptr %2, align 8, !tbaa !21
  %14 = getelementptr inbounds nuw %struct.internal_state, ptr %13, i32 0, i32 17
  %15 = load ptr, ptr %14, align 8, !tbaa !43
  %16 = load i32, ptr %3, align 4, !tbaa !9
  %17 = zext i32 %16 to i64
  %18 = getelementptr inbounds nuw i16, ptr %15, i64 %17
  store ptr %18, ptr %5, align 8, !tbaa !112
  br label %19

19:                                               ; preds = %36, %1
  %20 = load ptr, ptr %5, align 8, !tbaa !112
  %21 = getelementptr inbounds i16, ptr %20, i32 -1
  store ptr %21, ptr %5, align 8, !tbaa !112
  %22 = load i16, ptr %21, align 2, !tbaa !55
  %23 = zext i16 %22 to i32
  store i32 %23, ptr %4, align 4, !tbaa !9
  %24 = load i32, ptr %4, align 4, !tbaa !9
  %25 = load i32, ptr %6, align 4, !tbaa !9
  %26 = icmp uge i32 %24, %25
  br i1 %26, label %27, label %31

27:                                               ; preds = %19
  %28 = load i32, ptr %4, align 4, !tbaa !9
  %29 = load i32, ptr %6, align 4, !tbaa !9
  %30 = sub i32 %28, %29
  br label %32

31:                                               ; preds = %19
  br label %32

32:                                               ; preds = %31, %27
  %33 = phi i32 [ %30, %27 ], [ 0, %31 ]
  %34 = trunc i32 %33 to i16
  %35 = load ptr, ptr %5, align 8, !tbaa !112
  store i16 %34, ptr %35, align 2, !tbaa !55
  br label %36

36:                                               ; preds = %32
  %37 = load i32, ptr %3, align 4, !tbaa !9
  %38 = add i32 %37, -1
  store i32 %38, ptr %3, align 4, !tbaa !9
  %39 = icmp ne i32 %38, 0
  br i1 %39, label %19, label %40, !llvm.loop !113

40:                                               ; preds = %36
  %41 = load i32, ptr %6, align 4, !tbaa !9
  store i32 %41, ptr %3, align 4, !tbaa !9
  %42 = load ptr, ptr %2, align 8, !tbaa !21
  %43 = getelementptr inbounds nuw %struct.internal_state, ptr %42, i32 0, i32 16
  %44 = load ptr, ptr %43, align 8, !tbaa !42
  %45 = load i32, ptr %3, align 4, !tbaa !9
  %46 = zext i32 %45 to i64
  %47 = getelementptr inbounds nuw i16, ptr %44, i64 %46
  store ptr %47, ptr %5, align 8, !tbaa !112
  br label %48

48:                                               ; preds = %65, %40
  %49 = load ptr, ptr %5, align 8, !tbaa !112
  %50 = getelementptr inbounds i16, ptr %49, i32 -1
  store ptr %50, ptr %5, align 8, !tbaa !112
  %51 = load i16, ptr %50, align 2, !tbaa !55
  %52 = zext i16 %51 to i32
  store i32 %52, ptr %4, align 4, !tbaa !9
  %53 = load i32, ptr %4, align 4, !tbaa !9
  %54 = load i32, ptr %6, align 4, !tbaa !9
  %55 = icmp uge i32 %53, %54
  br i1 %55, label %56, label %60

56:                                               ; preds = %48
  %57 = load i32, ptr %4, align 4, !tbaa !9
  %58 = load i32, ptr %6, align 4, !tbaa !9
  %59 = sub i32 %57, %58
  br label %61

60:                                               ; preds = %48
  br label %61

61:                                               ; preds = %60, %56
  %62 = phi i32 [ %59, %56 ], [ 0, %60 ]
  %63 = trunc i32 %62 to i16
  %64 = load ptr, ptr %5, align 8, !tbaa !112
  store i16 %63, ptr %64, align 2, !tbaa !55
  br label %65

65:                                               ; preds = %61
  %66 = load i32, ptr %3, align 4, !tbaa !9
  %67 = add i32 %66, -1
  store i32 %67, ptr %3, align 4, !tbaa !9
  %68 = icmp ne i32 %67, 0
  br i1 %68, label %48, label %69, !llvm.loop !114

69:                                               ; preds = %65
  call void @llvm.lifetime.end.p0(i64 4, ptr %6) #5
  call void @llvm.lifetime.end.p0(i64 8, ptr %5) #5
  call void @llvm.lifetime.end.p0(i64 4, ptr %4) #5
  call void @llvm.lifetime.end.p0(i64 4, ptr %3) #5
  ret void
}